; Function Attrs: mustprogress nofree norecurse nosync nounwind willreturn memory(argmem: readwrite) uwtable
define hidden void @_ZN5ceres8internal21RefinedSparseCholeskyC2ESt10unique_ptrINS0_14SparseCholeskyESt14default_deleteIS3_EES2_INS0_22SparseIterativeRefinerES4_IS7_EE(ptr noundef nonnull writeonly align 8 captures(none) dereferenceable(32) initializes((0, 32)) %0, ptr noundef captures(none) %1, ptr noundef captures(none) %2) unnamed_addr #9 align 2 {
  store ptr getelementptr inbounds nuw inrange(-16, 40) (i8, ptr @_ZTVN5ceres8internal21RefinedSparseCholeskyE, i64 16), ptr %0, align 8, !tbaa !35
  %4 = getelementptr inbounds nuw i8, ptr %0, i64 8
  %5 = load i64, ptr %1, align 8, !tbaa !27
  store i64 %5, ptr %4, align 8, !tbaa !27
  store ptr null, ptr %1, align 8, !tbaa !27
  %6 = getelementptr inbounds nuw i8, ptr %0, i64 16
  %7 = load i64, ptr %2, align 8, !tbaa !40
  store i64 %7, ptr %6, align 8, !tbaa !40
  store ptr null, ptr %2, align 8, !tbaa !40
  %8 = getelementptr inbounds nuw i8, ptr %0, i64 24
  store ptr null, ptr %8, align 8, !tbaa !42
  ret void
}